; Function Attrs: cold nounwind optsize uwtable
define internal noundef i32 @tscc2_decode_end(ptr noundef readonly captures(none) %0) #0 {
  %2 = getelementptr inbounds nuw i8, ptr %0, i64 32
  %3 = load ptr, ptr %2, align 8, !tbaa !4
  %4 = getelementptr inbounds nuw i8, ptr %3, i64 8
  tail call void @av_frame_free(ptr noundef nonnull %4) #7
  %5 = getelementptr inbounds nuw i8, ptr %3, i64 24
  tail call void @av_freep(ptr noundef nonnull %5) #7
  ret i32 0
}